; Function Attrs: nounwind uwtable
define internal fastcc void @_jumbleSecLabelStmt(ptr noundef %0, ptr noundef nonnull readonly captures(none) %1) unnamed_addr #0 {
  %3 = getelementptr inbounds nuw i8, ptr %1, i64 4
  %4 = load ptr, ptr %0, align 8
  %5 = getelementptr inbounds nuw i8, ptr %0, i64 8
  %6 = load i64, ptr %5, align 8
  br label %.lr.ph.i

.lr.ph.i:                                         ; preds = %10, %2
  %.026.i = phi ptr [ %15, %10 ], [ %3, %2 ]
  %.02125.i = phi i64 [ %16, %10 ], [ 4, %2 ]
  %.02224.i = phi i64 [ %14, %10 ], [ %6, %2 ]
  %7 = icmp ugt i64 %.02224.i, 1023
  br i1 %7, label %8, label %10

8:                                                ; preds = %.lr.ph.i
  %9 = tail call i64 @hash_bytes_extended(ptr noundef %4, i32 noundef 1024, i64 noundef 0) #9
  store i64 %9, ptr %4, align 1
  br label %10

10:                                               ; preds = %8, %.lr.ph.i
  %.1.i = phi i64 [ 8, %8 ], [ %.02224.i, %.lr.ph.i ]
  %11 = sub nuw nsw i64 1024, %.1.i
  %12 = tail call i64 @llvm.umin.i64(i64 %.02125.i, i64 %11)
  %13 = getelementptr inbounds nuw i8, ptr %4, i64 %.1.i
  tail call void @llvm.memcpy.p0.p0.i64(ptr noundef nonnull align 1 dereferenceable(1) %13, ptr noundef nonnull align 1 dereferenceable(1) %.026.i, i64 %12, i1 false)
  %14 = add nuw nsw i64 %12, %.1.i
  %15 = getelementptr inbounds nuw i8, ptr %.026.i, i64 %12
  %16 = sub i64 %.02125.i, %12
  %.not.i = icmp eq i64 %16, 0
  br i1 %.not.i, label %AppendJumble.exit, label %.lr.ph.i, !llvm.loop !7

AppendJumble.exit:                                ; preds = %10
  store i64 %14, ptr %5, align 8
  %17 = getelementptr inbounds nuw i8, ptr %1, i64 8
  %18 = load ptr, ptr %17, align 8
  tail call fastcc void @_jumbleNode(ptr noundef nonnull %0, ptr noundef %18)
  %19 = getelementptr inbounds nuw i8, ptr %1, i64 16
  %20 = load ptr, ptr %19, align 8
  %.not = icmp eq ptr %20, null
  br i1 %.not, label %36, label %21

21:                                               ; preds = %AppendJumble.exit
  %22 = tail call i64 @strlen(ptr noundef nonnull dereferenceable(1) %20) #8
  %23 = add i64 %22, 1
  %24 = load ptr, ptr %0, align 8
  %25 = load i64, ptr %5, align 8
  %.not23.i = icmp eq i64 %23, 0
  br i1 %.not23.i, label %AppendJumble.exit21, label %.lr.ph.i15

.lr.ph.i15:                                       ; preds = %21, %29
  %.026.i16 = phi ptr [ %34, %29 ], [ %20, %21 ]
  %.02125.i17 = phi i64 [ %35, %29 ], [ %23, %21 ]
  %.02224.i18 = phi i64 [ %33, %29 ], [ %25, %21 ]
  %26 = icmp ugt i64 %.02224.i18, 1023
  br i1 %26, label %27, label %29

27:                                               ; preds = %.lr.ph.i15
  %28 = tail call i64 @hash_bytes_extended(ptr noundef %24, i32 noundef 1024, i64 noundef 0) #9
  store i64 %28, ptr %24, align 1
  br label %29

29:                                               ; preds = %27, %.lr.ph.i15
  %.1.i19 = phi i64 [ 8, %27 ], [ %.02224.i18, %.lr.ph.i15 ]
  %30 = sub nuw nsw i64 1024, %.1.i19
  %31 = tail call i64 @llvm.umin.i64(i64 %.02125.i17, i64 %30)
  %32 = getelementptr inbounds nuw i8, ptr %24, i64 %.1.i19
  tail call void @llvm.memcpy.p0.p0.i64(ptr noundef nonnull align 1 dereferenceable(1) %32, ptr noundef nonnull align 1 dereferenceable(1) %.026.i16, i64 %31, i1 false)
  %33 = add nuw nsw i64 %31, %.1.i19
  %34 = getelementptr inbounds nuw i8, ptr %.026.i16, i64 %31
  %35 = sub i64 %.02125.i17, %31
  %.not.i20 = icmp eq i64 %35, 0
  br i1 %.not.i20, label %AppendJumble.exit21, label %.lr.ph.i15, !llvm.loop !7

AppendJumble.exit21:                              ; preds = %29, %21
  %.022.lcssa.i = phi i64 [ %25, %21 ], [ %33, %29 ]
  store i64 %.022.lcssa.i, ptr %5, align 8
  br label %36

36:                                               ; preds = %AppendJumble.exit, %AppendJumble.exit21
  %37 = getelementptr inbounds nuw i8, ptr %1, i64 24
  %38 = load ptr, ptr %37, align 8
  %.not14 = icmp eq ptr %38, null
  br i1 %.not14, label %54, label %39

39:                                               ; preds = %36
  %40 = tail call i64 @strlen(ptr noundef nonnull dereferenceable(1) %38) #8
  %41 = add i64 %40, 1
  %42 = load ptr, ptr %0, align 8
  %43 = load i64, ptr %5, align 8
  %.not23.i22 = icmp eq i64 %41, 0
  br i1 %.not23.i22, label %AppendJumble.exit30, label %.lr.ph.i23

.lr.ph.i23:                                       ; preds = %39, %47
  %.026.i24 = phi ptr [ %52, %47 ], [ %38, %39 ]
  %.02125.i25 = phi i64 [ %53, %47 ], [ %41, %39 ]
  %.02224.i26 = phi i64 [ %51, %47 ], [ %43, %39 ]
  %44 = icmp ugt i64 %.02224.i26, 1023
  br i1 %44, label %45, label %47

45:                                               ; preds = %.lr.ph.i23
  %46 = tail call i64 @hash_bytes_extended(ptr noundef %42, i32 noundef 1024, i64 noundef 0) #9
  store i64 %46, ptr %42, align 1
  br label %47

47:                                               ; preds = %45, %.lr.ph.i23
  %.1.i27 = phi i64 [ 8, %45 ], [ %.02224.i26, %.lr.ph.i23 ]
  %48 = sub nuw nsw i64 1024, %.1.i27
  %49 = tail call i64 @llvm.umin.i64(i64 %.02125.i25, i64 %48)
  %50 = getelementptr inbounds nuw i8, ptr %42, i64 %.1.i27
  tail call void @llvm.memcpy.p0.p0.i64(ptr noundef nonnull align 1 dereferenceable(1) %50, ptr noundef nonnull align 1 dereferenceable(1) %.026.i24, i64 %49, i1 false)
  %51 = add nuw nsw i64 %49, %.1.i27
  %52 = getelementptr inbounds nuw i8, ptr %.026.i24, i64 %49
  %53 = sub i64 %.02125.i25, %49
  %.not.i28 = icmp eq i64 %53, 0
  br i1 %.not.i28, label %AppendJumble.exit30, label %.lr.ph.i23, !llvm.loop !7

AppendJumble.exit30:                              ; preds = %47, %39
  %.022.lcssa.i29 = phi i64 [ %43, %39 ], [ %51, %47 ]
  store i64 %.022.lcssa.i29, ptr %5, align 8
  br label %54

54:                                               ; preds = %AppendJumble.exit30, %36
  ret void
}